target datalayout = "e-m:e-p270:32:32-p271:32:32-p272:64:64-i64:64-i128:128-f80:128-n8:16:32:64-S128"
target triple = "x86_64-pc-linux-gnu"

%"struct.OpenImageIO::v3_1_0::TypeDesc" = type { i8, i8, i8, i8, i32 }
%"class.OpenImageIO::v3_1_0::OpenEXRCoreInput" = type { %"class.OpenImageIO::v3_1_0::ImageInput", %"class.std::vector.12", i32, i32, ptr, %"struct.OpenImageIO::v3_1_0::oiioexr_filebuf_struct", %"class.std::unique_ptr.17", i32, %"class.std::vector.25" }
%"class.OpenImageIO::v3_1_0::ImageInput" = type { ptr, %"class.OpenImageIO::v3_1_0::ImageSpec", %"class.std::unique_ptr" }
%"class.OpenImageIO::v3_1_0::ImageSpec" = type { i32, i32, i32, i32, i32, i32, i32, i32, i32, i32, i32, i32, i32, i32, i32, i32, %"struct.OpenImageIO::v3_1_0::TypeDesc", %"class.std::vector", %"class.std::vector.0", i32, i32, i8, %"class.OpenImageIO::v3_1_0::ParamValueList" }
%"class.std::vector" = type { %"struct.std::_Vector_base" }
%"struct.std::_Vector_base" = type { %"struct.std::_Vector_base<OpenImageIO::v3_1_0::TypeDesc, std::allocator<OpenImageIO::v3_1_0::TypeDesc>>::_Vector_impl" }
%"struct.std::_Vector_base<OpenImageIO::v3_1_0::TypeDesc, std::allocator<OpenImageIO::v3_1_0::TypeDesc>>::_Vector_impl" = type { %"struct.std::_Vector_base<OpenImageIO::v3_1_0::TypeDesc, std::allocator<OpenImageIO::v3_1_0::TypeDesc>>::_Vector_impl_data" }
%"struct.std::_Vector_base<OpenImageIO::v3_1_0::TypeDesc, std::allocator<OpenImageIO::v3_1_0::TypeDesc>>::_Vector_impl_data" = type { ptr, ptr, ptr }
%"class.std::vector.0" = type { %"struct.std::_Vector_base.1" }
%"struct.std::_Vector_base.1" = type { %"struct.std::_Vector_base<std::__cxx11::basic_string<char>, std::allocator<std::__cxx11::basic_string<char>>>::_Vector_impl" }
%"struct.std::_Vector_base<std::__cxx11::basic_string<char>, std::allocator<std::__cxx11::basic_string<char>>>::_Vector_impl" = type { %"struct.std::_Vector_base<std::__cxx11::basic_string<char>, std::allocator<std::__cxx11::basic_string<char>>>::_Vector_impl_data" }
%"struct.std::_Vector_base<std::__cxx11::basic_string<char>, std::allocator<std::__cxx11::basic_string<char>>>::_Vector_impl_data" = type { ptr, ptr, ptr }
%"class.OpenImageIO::v3_1_0::ParamValueList" = type { %"class.std::vector.5" }
%"class.std::vector.5" = type { %"struct.std::_Vector_base.6" }
%"struct.std::_Vector_base.6" = type { %"struct.std::_Vector_base<OpenImageIO::v3_1_0::ParamValue, std::allocator<OpenImageIO::v3_1_0::ParamValue>>::_Vector_impl" }
%"struct.std::_Vector_base<OpenImageIO::v3_1_0::ParamValue, std::allocator<OpenImageIO::v3_1_0::ParamValue>>::_Vector_impl" = type { %"struct.std::_Vector_base<OpenImageIO::v3_1_0::ParamValue, std::allocator<OpenImageIO::v3_1_0::ParamValue>>::_Vector_impl_data" }
%"struct.std::_Vector_base<OpenImageIO::v3_1_0::ParamValue, std::allocator<OpenImageIO::v3_1_0::ParamValue>>::_Vector_impl_data" = type { ptr, ptr, ptr }
%"class.std::unique_ptr" = type { %"struct.std::__uniq_ptr_data" }
%"struct.std::__uniq_ptr_data" = type { %"class.std::__uniq_ptr_impl" }
%"class.std::__uniq_ptr_impl" = type { %"class.std::tuple" }
%"class.std::tuple" = type { %"struct.std::_Tuple_impl" }
%"struct.std::_Tuple_impl" = type { %"struct.std::_Tuple_impl.10", %"struct.std::_Head_base.11" }
%"struct.std::_Tuple_impl.10" = type { %"struct.std::_Head_base" }
%"struct.std::_Head_base" = type { ptr }
%"struct.std::_Head_base.11" = type { ptr }
%"class.std::vector.12" = type { %"struct.std::_Vector_base.13" }
%"struct.std::_Vector_base.13" = type { %"struct.std::_Vector_base<OpenImageIO::v3_1_0::OpenEXRCoreInput::PartInfo, std::allocator<OpenImageIO::v3_1_0::OpenEXRCoreInput::PartInfo>>::_Vector_impl" }
%"struct.std::_Vector_base<OpenImageIO::v3_1_0::OpenEXRCoreInput::PartInfo, std::allocator<OpenImageIO::v3_1_0::OpenEXRCoreInput::PartInfo>>::_Vector_impl" = type { %"struct.std::_Vector_base<OpenImageIO::v3_1_0::OpenEXRCoreInput::PartInfo, std::allocator<OpenImageIO::v3_1_0::OpenEXRCoreInput::PartInfo>>::_Vector_impl_data" }
%"struct.std::_Vector_base<OpenImageIO::v3_1_0::OpenEXRCoreInput::PartInfo, std::allocator<OpenImageIO::v3_1_0::OpenEXRCoreInput::PartInfo>>::_Vector_impl_data" = type { ptr, ptr, ptr }
%"struct.OpenImageIO::v3_1_0::oiioexr_filebuf_struct" = type { ptr, ptr }
%"class.std::unique_ptr.17" = type { %"struct.std::__uniq_ptr_data.18" }
%"struct.std::__uniq_ptr_data.18" = type { %"class.std::__uniq_ptr_impl.19" }
%"class.std::__uniq_ptr_impl.19" = type { %"class.std::tuple.20" }
%"class.std::tuple.20" = type { %"struct.std::_Tuple_impl.21" }
%"struct.std::_Tuple_impl.21" = type { %"struct.std::_Head_base.24" }
%"struct.std::_Head_base.24" = type { ptr }
%"class.std::vector.25" = type { %"struct.std::_Vector_base.26" }
%"struct.std::_Vector_base.26" = type { %"struct.std::_Vector_base<float, std::allocator<float>>::_Vector_impl" }
%"struct.std::_Vector_base<float, std::allocator<float>>::_Vector_impl" = type { %"struct.std::_Vector_base<float, std::allocator<float>>::_Vector_impl_data" }
%"struct.std::_Vector_base<float, std::allocator<float>>::_Vector_impl_data" = type { ptr, ptr, ptr }

@.str.85 = private unnamed_addr constant [64 x i8] c"called OpenEXRInput::read_native_scanlines without an open file\00", align 1

; Function Attrs: mustprogress uwtable
define hidden noundef zeroext i1 @_ZN11OpenImageIO6v3_1_016OpenEXRCoreInput21read_native_scanlinesEiiiiiPv(ptr noundef nonnull align 8 dereferenceable(280) %0, i32 noundef %1, i32 noundef %2, i32 noundef %3, i32 noundef %4, i32 noundef %5, ptr noundef %6) unnamed_addr #6 align 2 {
  %8 = alloca i1, align 1
  %9 = alloca ptr, align 8
  %10 = alloca i32, align 4
  %11 = alloca i32, align 4
  %12 = alloca i32, align 4
  %13 = alloca i32, align 4
  %14 = alloca i32, align 4
  %15 = alloca ptr, align 8
  %16 = alloca ptr, align 8
  store ptr %0, ptr %9, align 8, !tbaa !24
  store i32 %1, ptr %10, align 4, !tbaa !107
  store i32 %2, ptr %11, align 4, !tbaa !107
  store i32 %3, ptr %12, align 4, !tbaa !107
  store i32 %4, ptr %13, align 4, !tbaa !107
  store i32 %5, ptr %14, align 4, !tbaa !107
  store ptr %6, ptr %15, align 8, !tbaa !109
  %17 = load ptr, ptr %9, align 8
  %18 = getelementptr inbounds nuw %"class.OpenImageIO::v3_1_0::OpenEXRCoreInput", ptr %17, i32 0, i32 4
  %19 = load ptr, ptr %18, align 8, !tbaa !28
  %20 = icmp ne ptr %19, null
  br i1 %20, label %22, label %21

21:                                               ; preds = %7
  call void @_ZNK11OpenImageIO6v3_1_010ImageInput8errorfmtIJEEEvPKcDpRKT_(ptr noundef nonnull align 8 dereferenceable(184) %17, ptr noundef @.str.85)
  store i1 false, ptr %8, align 1
  br label %36

22:                                               ; preds = %7
  call void @llvm.lifetime.start.p0(i64 8, ptr %16) #5
  %23 = load i32, ptr %10, align 4, !tbaa !107
  %24 = load i32, ptr %11, align 4, !tbaa !107
  %25 = call noundef nonnull align 8 dereferenceable(160) ptr @_ZN11OpenImageIO6v3_1_016OpenEXRCoreInput9init_partEii(ptr noundef nonnull align 8 dereferenceable(280) %17, i32 noundef %23, i32 noundef %24)
  store ptr %25, ptr %16, align 8, !tbaa !116
  %26 = load i32, ptr %10, align 4, !tbaa !107
  %27 = load i32, ptr %11, align 4, !tbaa !107
  %28 = load i32, ptr %12, align 4, !tbaa !107
  %29 = load i32, ptr %13, align 4, !tbaa !107
  %30 = load i32, ptr %14, align 4, !tbaa !107
  %31 = load ptr, ptr %16, align 8, !tbaa !116
  %32 = getelementptr inbounds nuw %"class.OpenImageIO::v3_1_0::ImageSpec", ptr %31, i32 0, i32 15
  %33 = load i32, ptr %32, align 4, !tbaa !308
  %34 = load ptr, ptr %15, align 8, !tbaa !109
  %35 = call noundef zeroext i1 @_ZN11OpenImageIO6v3_1_016OpenEXRCoreInput21read_native_scanlinesEiiiiiiiPv(ptr noundef nonnull align 8 dereferenceable(280) %17, i32 noundef %26, i32 noundef %27, i32 noundef %28, i32 noundef %29, i32 noundef %30, i32 noundef 0, i32 noundef %33, ptr noundef %34)
  store i1 %35, ptr %8, align 1
  call void @llvm.lifetime.end.p0(i64 8, ptr %16) #5
  br label %36

36:                                               ; preds = %22, %21
  %37 = load i1, ptr %8, align 1
  ret i1 %37
}