; Function Attrs: mustprogress uwtable
define hidden noundef zeroext i1 @_ZN11OpenImageIO6v3_1_016OpenEXRCoreInput21read_native_scanlinesEiiiiiPv(ptr noundef nonnull align 8 dereferenceable(280) %0, i32 noundef %1, i32 noundef %2, i32 noundef %3, i32 noundef %4, i32 %5, ptr noundef %6) unnamed_addr #5 align 2 {
  %8 = getelementptr inbounds nuw i8, ptr %0, i64 216
  %9 = load ptr, ptr %8, align 8, !tbaa !138
  %.not = icmp eq ptr %9, null
  br i1 %.not, label %10, label %11

10:                                               ; preds = %7
  tail call void @_ZNK11OpenImageIO6v3_1_010ImageInput8errorfmtIJEEEvPKcDpRKT_(ptr noundef nonnull align 8 dereferenceable(184) %0, ptr noundef nonnull @.str.85)
  br label %16

11:                                               ; preds = %7
  %12 = tail call noundef nonnull align 8 dereferenceable(160) ptr @_ZN11OpenImageIO6v3_1_016OpenEXRCoreInput9init_partEii(ptr noundef nonnull align 8 dereferenceable(280) %0, i32 noundef %1, i32 noundef %2)
  %13 = getelementptr inbounds nuw i8, ptr %12, i64 60
  %14 = load i32, ptr %13, align 4, !tbaa !303
  %15 = tail call noundef zeroext i1 @_ZN11OpenImageIO6v3_1_016OpenEXRCoreInput21read_native_scanlinesEiiiiiiiPv(ptr noundef nonnull align 8 dereferenceable(280) %0, i32 noundef %1, i32 noundef %2, i32 noundef %3, i32 noundef %4, i32 poison, i32 noundef 0, i32 noundef %14, ptr noundef %6)
  br label %16

16:                                               ; preds = %11, %10
  %.0 = phi i1 [ %15, %11 ], [ false, %10 ]
  ret i1 %.0
}